target datalayout = "e-m:e-p270:32:32-p271:32:32-p272:64:64-i64:64-i128:128-f80:128-n8:16:32:64-S128"
target triple = "x86_64-unknown-linux-gnu"

%"class.icu_75::UnicodeString" = type { %"class.icu_75::Replaceable", %"union.icu_75::UnicodeString::StackBufferOrFields" }
%"class.icu_75::Replaceable" = type { %"class.icu_75::UObject" }
%"class.icu_75::UObject" = type { ptr }
%"union.icu_75::UnicodeString::StackBufferOrFields" = type { %struct.anon.0, [32 x i8] }
%struct.anon.0 = type { i16, i32, i32, ptr }
%"struct.icu_75::CollationData" = type <{ ptr, ptr, ptr, ptr, ptr, ptr, ptr, i32, i32, i32, i32, ptr, ptr, ptr, i32, i32, ptr, ptr, i32, [4 x i8], ptr, i32, [4 x i8] }>
%"class.icu_75::UCharsTrie::Iterator" = type { ptr, ptr, ptr, i32, i32, i8, %"class.icu_75::UnicodeString", i32, i32, ptr }
%"class.icu_75::ConstChar16Ptr" = type { ptr }
%"class.icu_75::ContractionsAndExpansions" = type <{ ptr, ptr, ptr, ptr, i8, i8, [6 x i8], %"class.icu_75::UnicodeSet", %"class.icu_75::UnicodeSet", %"class.icu_75::UnicodeString", ptr, [31 x i64], i32, [4 x i8] }>
%"class.icu_75::UnicodeSet" = type <{ %"class.icu_75::UnicodeFilter", ptr, i32, i32, i8, [7 x i8], ptr, ptr, i32, [4 x i8], ptr, i32, [4 x i8], ptr, ptr, [25 x i32], [4 x i8] }>
%"class.icu_75::UnicodeFilter" = type { %"class.icu_75::UnicodeFunctor", %"class.icu_75::UnicodeMatcher" }
%"class.icu_75::UnicodeFunctor" = type { %"class.icu_75::UObject" }
%"class.icu_75::UnicodeMatcher" = type { ptr }

; Function Attrs: mustprogress nounwind uwtable
define linkonce_odr noundef i32 @_ZNK6icu_7513UnicodeString14getShortLengthEv(ptr noundef nonnull align 8 dereferenceable(64) %this) #1 comdat align 2 {
entry:
  %this.addr = alloca ptr, align 8
  store ptr %this, ptr %this.addr, align 8
  %this1 = load ptr, ptr %this.addr, align 8
  %fUnion = getelementptr inbounds %"class.icu_75::UnicodeString", ptr %this1, i32 0, i32 1
  %fLengthAndFlags = getelementptr inbounds %struct.anon.0, ptr %fUnion, i32 0, i32 0
  %0 = load i16, ptr %fLengthAndFlags, align 8
  %conv = sext i16 %0 to i32
  %shr = ashr i32 %conv, 5
  ret i32 %shr
}

; Function Attrs: mustprogress nounwind uwtable
define linkonce_odr noundef signext i8 @_ZNK6icu_7513UnicodeString14hasShortLengthEv(ptr noundef nonnull align 8 dereferenceable(64) %this) #1 comdat align 2 {
entry:
  %this.addr = alloca ptr, align 8
  store ptr %this, ptr %this.addr, align 8
  %this1 = load ptr, ptr %this.addr, align 8
  %fUnion = getelementptr inbounds %"class.icu_75::UnicodeString", ptr %this1, i32 0, i32 1
  %fLengthAndFlags = getelementptr inbounds %struct.anon.0, ptr %fUnion, i32 0, i32 0
  %0 = load i16, ptr %fLengthAndFlags, align 8
  %conv = sext i16 %0 to i32
  %cmp = icmp sge i32 %conv, 0
  %conv2 = zext i1 %cmp to i8
  ret i8 %conv2
}

; Function Attrs: mustprogress nounwind uwtable
define linkonce_odr void @_ZN6icu_7513UnicodeString13setZeroLengthEv(ptr noundef nonnull align 8 dereferenceable(64) %this) #1 comdat align 2 {
entry:
  %this.addr = alloca ptr, align 8
  store ptr %this, ptr %this.addr, align 8
  %this1 = load ptr, ptr %this.addr, align 8
  %fUnion = getelementptr inbounds %"class.icu_75::UnicodeString", ptr %this1, i32 0, i32 1
  %fLengthAndFlags = getelementptr inbounds %struct.anon.0, ptr %fUnion, i32 0, i32 0
  %0 = load i16, ptr %fLengthAndFlags, align 8
  %conv = sext i16 %0 to i32
  %and = and i32 %conv, 31
  %conv2 = trunc i32 %and to i16
  store i16 %conv2, ptr %fLengthAndFlags, align 8
  ret void
}

; Function Attrs: mustprogress nounwind uwtable
define linkonce_odr void @_ZN6icu_7513UnicodeString10setToEmptyEv(ptr noundef nonnull align 8 dereferenceable(64) %this) #1 comdat align 2 {
entry:
  %this.addr = alloca ptr, align 8
  store ptr %this, ptr %this.addr, align 8
  %this1 = load ptr, ptr %this.addr, align 8
  %fUnion = getelementptr inbounds %"class.icu_75::UnicodeString", ptr %this1, i32 0, i32 1
  %fLengthAndFlags = getelementptr inbounds %struct.anon.0, ptr %fUnion, i32 0, i32 0
  store i16 2, ptr %fLengthAndFlags, align 8
  ret void
}

; Function Attrs: mustprogress nounwind uwtable
define linkonce_odr noundef signext i8 @_ZNK6icu_7513UnicodeString7isBogusEv(ptr noundef nonnull align 8 dereferenceable(64) %this) #1 comdat align 2 {
entry:
  %this.addr = alloca ptr, align 8
  store ptr %this, ptr %this.addr, align 8
  %this1 = load ptr, ptr %this.addr, align 8
  %fUnion = getelementptr inbounds %"class.icu_75::UnicodeString", ptr %this1, i32 0, i32 1
  %fLengthAndFlags = getelementptr inbounds %struct.anon.0, ptr %fUnion, i32 0, i32 0
  %0 = load i16, ptr %fLengthAndFlags, align 8
  %conv = sext i16 %0 to i32
  %and = and i32 %conv, 1
  %conv2 = trunc i32 %and to i8
  ret i8 %conv2
}

; Function Attrs: mustprogress uwtable
define linkonce_odr noundef i32 @_ZNK6icu_7513UnicodeString6lengthEv(ptr noundef nonnull align 8 dereferenceable(64) %this) #0 comdat align 2 {
entry:
  %this.addr = alloca ptr, align 8
  store ptr %this, ptr %this.addr, align 8
  %this1 = load ptr, ptr %this.addr, align 8
  %call = call noundef signext i8 @_ZNK6icu_7513UnicodeString14hasShortLengthEv(ptr noundef nonnull align 8 dereferenceable(64) %this1)
  %tobool = icmp ne i8 %call, 0
  br i1 %tobool, label %cond.true, label %cond.false

cond.true:                                        ; preds = %entry
  %call2 = call noundef i32 @_ZNK6icu_7513UnicodeString14getShortLengthEv(ptr noundef nonnull align 8 dereferenceable(64) %this1)
  br label %cond.end

cond.false:                                       ; preds = %entry
  %fUnion = getelementptr inbounds %"class.icu_75::UnicodeString", ptr %this1, i32 0, i32 1
  %fLength = getelementptr inbounds %struct.anon.0, ptr %fUnion, i32 0, i32 1
  %0 = load i32, ptr %fLength, align 4
  br label %cond.end

cond.end:                                         ; preds = %cond.false, %cond.true
  %cond = phi i32 [ %call2, %cond.true ], [ %0, %cond.false ]
  ret i32 %cond
}

; Function Attrs: mustprogress uwtable
define linkonce_odr noundef nonnull align 8 dereferenceable(64) ptr @_ZN6icu_7513UnicodeString6removeEv(ptr noundef nonnull align 8 dereferenceable(64) %this) #0 comdat align 2 {
entry:
  %this.addr = alloca ptr, align 8
  store ptr %this, ptr %this.addr, align 8
  %this1 = load ptr, ptr %this.addr, align 8
  %call = call noundef signext i8 @_ZNK6icu_7513UnicodeString7isBogusEv(ptr noundef nonnull align 8 dereferenceable(64) %this1)
  %tobool = icmp ne i8 %call, 0
  br i1 %tobool, label %if.then, label %if.else

if.then:                                          ; preds = %entry
  call void @_ZN6icu_7513UnicodeString10setToEmptyEv(ptr noundef nonnull align 8 dereferenceable(64) %this1)
  br label %if.end

if.else:                                          ; preds = %entry
  call void @_ZN6icu_7513UnicodeString13setZeroLengthEv(ptr noundef nonnull align 8 dereferenceable(64) %this1)
  br label %if.end

if.end:                                           ; preds = %if.else, %if.then
  ret ptr %this1
}

; Function Attrs: mustprogress uwtable
define linkonce_odr noundef nonnull align 8 dereferenceable(64) ptr @_ZN6icu_7513UnicodeString7reverseEv(ptr noundef nonnull align 8 dereferenceable(64) %this) #0 comdat align 2 {
entry:
  %this.addr = alloca ptr, align 8
  store ptr %this, ptr %this.addr, align 8
  %this1 = load ptr, ptr %this.addr, align 8
  %call = call noundef i32 @_ZNK6icu_7513UnicodeString6lengthEv(ptr noundef nonnull align 8 dereferenceable(64) %this1)
  %call2 = call noundef nonnull align 8 dereferenceable(64) ptr @_ZN6icu_7513UnicodeString9doReverseEii(ptr noundef nonnull align 8 dereferenceable(64) %this1, i32 noundef 0, i32 noundef %call)
  ret ptr %call2
}

; Function Attrs: mustprogress uwtable
define linkonce_odr void @_ZN6icu_7525ContractionsAndExpansions11resetPrefixEv(ptr noundef nonnull align 8 dereferenceable(764) %this) #0 comdat align 2 {
entry:
  %this.addr = alloca ptr, align 8
  store ptr %this, ptr %this.addr, align 8
  %this1 = load ptr, ptr %this.addr, align 8
  %unreversedPrefix = getelementptr inbounds %"class.icu_75::ContractionsAndExpansions", ptr %this1, i32 0, i32 9
  %call = call noundef nonnull align 8 dereferenceable(64) ptr @_ZN6icu_7513UnicodeString6removeEv(ptr noundef nonnull align 8 dereferenceable(64) %unreversedPrefix)
  ret void
}

; Function Attrs: mustprogress nounwind uwtable
define linkonce_odr noundef i32 @_ZNK6icu_7510UCharsTrie8Iterator8getValueEv(ptr noundef nonnull align 8 dereferenceable(120) %this) #1 comdat align 2 {
entry:
  %this.addr = alloca ptr, align 8
  store ptr %this, ptr %this.addr, align 8
  %this1 = load ptr, ptr %this.addr, align 8
  %value_ = getelementptr inbounds %"class.icu_75::UCharsTrie::Iterator", ptr %this1, i32 0, i32 8
  %0 = load i32, ptr %value_, align 4
  ret i32 %0
}

; Function Attrs: mustprogress uwtable
define linkonce_odr void @_ZN6icu_7525ContractionsAndExpansions9setPrefixERKNS_13UnicodeStringE(ptr noundef nonnull align 8 dereferenceable(764) %this, ptr noundef nonnull align 8 dereferenceable(64) %pfx) #0 comdat align 2 {
entry:
  %this.addr = alloca ptr, align 8
  %pfx.addr = alloca ptr, align 8
  store ptr %this, ptr %this.addr, align 8
  store ptr %pfx, ptr %pfx.addr, align 8
  %this1 = load ptr, ptr %this.addr, align 8
  %0 = load ptr, ptr %pfx.addr, align 8
  %unreversedPrefix = getelementptr inbounds %"class.icu_75::ContractionsAndExpansions", ptr %this1, i32 0, i32 9
  %call = call noundef nonnull align 8 dereferenceable(64) ptr @_ZN6icu_7513UnicodeStringaSERKS0_(ptr noundef nonnull align 8 dereferenceable(64) %unreversedPrefix, ptr noundef nonnull align 8 dereferenceable(64) %0)
  %unreversedPrefix2 = getelementptr inbounds %"class.icu_75::ContractionsAndExpansions", ptr %this1, i32 0, i32 9
  %call3 = call noundef nonnull align 8 dereferenceable(64) ptr @_ZN6icu_7513UnicodeString7reverseEv(ptr noundef nonnull align 8 dereferenceable(64) %unreversedPrefix2)
  ret void
}

; Function Attrs: mustprogress nounwind uwtable
define linkonce_odr noundef nonnull align 8 dereferenceable(64) ptr @_ZNK6icu_7510UCharsTrie8Iterator9getStringEv(ptr noundef nonnull align 8 dereferenceable(120) %this) #1 comdat align 2 {
entry:
  %this.addr = alloca ptr, align 8
  store ptr %this, ptr %this.addr, align 8
  %this1 = load ptr, ptr %this.addr, align 8
  %str_ = getelementptr inbounds %"class.icu_75::UCharsTrie::Iterator", ptr %this1, i32 0, i32 6
  ret ptr %str_
}

; Function Attrs: mustprogress nounwind uwtable
define linkonce_odr void @_ZN6icu_7514ConstChar16PtrD2Ev(ptr noundef nonnull align 8 dereferenceable(8) %this) unnamed_addr #1 comdat align 2 {
entry:
  %this.addr = alloca ptr, align 8
  store ptr %this, ptr %this.addr, align 8
  %this1 = load ptr, ptr %this.addr, align 8
  %p_ = getelementptr inbounds %"class.icu_75::ConstChar16Ptr", ptr %this1, i32 0, i32 0
  %0 = load ptr, ptr %p_, align 8
  call void asm sideeffect "", "rm,~{memory},~{dirflag},~{fpsr},~{flags}"(ptr %0) #6, !srcloc !12
  ret void
}

; Function Attrs: mustprogress nounwind uwtable
define linkonce_odr void @_ZN6icu_7514ConstChar16PtrC2EPKDs(ptr noundef nonnull align 8 dereferenceable(8) %this, ptr noundef %p) unnamed_addr #1 comdat align 2 {
entry:
  %this.addr = alloca ptr, align 8
  %p.addr = alloca ptr, align 8
  store ptr %this, ptr %this.addr, align 8
  store ptr %p, ptr %p.addr, align 8
  %this1 = load ptr, ptr %this.addr, align 8
  %p_ = getelementptr inbounds %"class.icu_75::ConstChar16Ptr", ptr %this1, i32 0, i32 0
  %0 = load ptr, ptr %p.addr, align 8
  store ptr %0, ptr %p_, align 8
  ret void
}

; Function Attrs: mustprogress nounwind uwtable
define linkonce_odr noundef i32 @_ZN6icu_7513CollationData8readCE32EPKDs(ptr noundef %p) #1 comdat align 2 {
entry:
  %p.addr = alloca ptr, align 8
  store ptr %p, ptr %p.addr, align 8
  %0 = load ptr, ptr %p.addr, align 8
  %arrayidx = getelementptr inbounds i16, ptr %0, i64 0
  %1 = load i16, ptr %arrayidx, align 2
  %conv = zext i16 %1 to i32
  %shl = shl i32 %conv, 16
  %2 = load ptr, ptr %p.addr, align 8
  %arrayidx1 = getelementptr inbounds i16, ptr %2, i64 1
  %3 = load i16, ptr %arrayidx1, align 2
  %conv2 = zext i16 %3 to i32
  %or = or i32 %shl, %conv2
  ret i32 %or
}

; Function Attrs: mustprogress nounwind uwtable
define linkonce_odr noundef i32 @_ZN6icu_759Collation13indexFromCE32Ej(i32 noundef %ce32) #1 comdat align 2 {
entry:
  %ce32.addr = alloca i32, align 4
  store i32 %ce32, ptr %ce32.addr, align 4
  %0 = load i32, ptr %ce32.addr, align 4
  %shr = lshr i32 %0, 13
  ret i32 %shr
}

; Function Attrs: mustprogress uwtable
define void @_ZN6icu_7525ContractionsAndExpansions14handlePrefixesEiij(ptr noundef nonnull align 8 dereferenceable(764) %this, i32 noundef %start, i32 noundef %end, i32 noundef %ce32) #0 align 2 personality ptr @__gxx_personality_v0 {
entry:
  %this.addr = alloca ptr, align 8
  %start.addr = alloca i32, align 4
  %end.addr = alloca i32, align 4
  %ce32.addr = alloca i32, align 4
  %p = alloca ptr, align 8
  %prefixes = alloca %"class.icu_75::UCharsTrie::Iterator", align 8
  %agg.tmp = alloca %"class.icu_75::ConstChar16Ptr", align 8
  %exn.slot = alloca ptr, align 8
  %ehselector.slot = alloca i32, align 4
  store ptr %this, ptr %this.addr, align 8
  store i32 %start, ptr %start.addr, align 4
  store i32 %end, ptr %end.addr, align 4
  store i32 %ce32, ptr %ce32.addr, align 4
  %this1 = load ptr, ptr %this.addr, align 8
  %data = getelementptr inbounds %"class.icu_75::ContractionsAndExpansions", ptr %this1, i32 0, i32 0
  %0 = load ptr, ptr %data, align 8
  %contexts = getelementptr inbounds %"struct.icu_75::CollationData", ptr %0, i32 0, i32 3
  %1 = load ptr, ptr %contexts, align 8
  %2 = load i32, ptr %ce32.addr, align 4
  %call = call noundef i32 @_ZN6icu_759Collation13indexFromCE32Ej(i32 noundef %2)
  %idx.ext = sext i32 %call to i64
  %add.ptr = getelementptr inbounds i16, ptr %1, i64 %idx.ext
  store ptr %add.ptr, ptr %p, align 8
  %3 = load ptr, ptr %p, align 8
  %call2 = call noundef i32 @_ZN6icu_7513CollationData8readCE32EPKDs(ptr noundef %3)
  store i32 %call2, ptr %ce32.addr, align 4
  %4 = load i32, ptr %start.addr, align 4
  %5 = load i32, ptr %end.addr, align 4
  %6 = load i32, ptr %ce32.addr, align 4
  call void @_ZN6icu_7525ContractionsAndExpansions10handleCE32Eiij(ptr noundef nonnull align 8 dereferenceable(764) %this1, i32 noundef %4, i32 noundef %5, i32 noundef %6)
  %addPrefixes = getelementptr inbounds %"class.icu_75::ContractionsAndExpansions", ptr %this1, i32 0, i32 4
  %7 = load i8, ptr %addPrefixes, align 8
  %tobool = icmp ne i8 %7, 0
  br i1 %tobool, label %if.end, label %if.then

if.then:                                          ; preds = %entry
  br label %return

if.end:                                           ; preds = %entry
  %8 = load ptr, ptr %p, align 8
  %add.ptr3 = getelementptr inbounds i16, ptr %8, i64 2
  call void @_ZN6icu_7514ConstChar16PtrC2EPKDs(ptr noundef nonnull align 8 dereferenceable(8) %agg.tmp, ptr noundef %add.ptr3)
  %errorCode = getelementptr inbounds %"class.icu_75::ContractionsAndExpansions", ptr %this1, i32 0, i32 12
  invoke void @_ZN6icu_7510UCharsTrie8IteratorC1ENS_14ConstChar16PtrEiR10UErrorCode(ptr noundef nonnull align 8 dereferenceable(120) %prefixes, ptr noundef %agg.tmp, i32 noundef 0, ptr noundef nonnull align 4 dereferenceable(4) %errorCode)
          to label %invoke.cont unwind label %lpad

invoke.cont:                                      ; preds = %if.end
  call void @_ZN6icu_7514ConstChar16PtrD2Ev(ptr noundef nonnull align 8 dereferenceable(8) %agg.tmp) #6
  br label %while.cond

while.cond:                                       ; preds = %invoke.cont16, %invoke.cont
  %errorCode4 = getelementptr inbounds %"class.icu_75::ContractionsAndExpansions", ptr %this1, i32 0, i32 12
  %call7 = invoke noundef signext i8 @_ZN6icu_7510UCharsTrie8Iterator4nextER10UErrorCode(ptr noundef nonnull align 8 dereferenceable(120) %prefixes, ptr noundef nonnull align 4 dereferenceable(4) %errorCode4)
          to label %invoke.cont6 unwind label %lpad5

invoke.cont6:                                     ; preds = %while.cond
  %tobool8 = icmp ne i8 %call7, 0
  br i1 %tobool8, label %while.body, label %while.end

while.body:                                       ; preds = %invoke.cont6
  %call10 = invoke noundef nonnull align 8 dereferenceable(64) ptr @_ZNK6icu_7510UCharsTrie8Iterator9getStringEv(ptr noundef nonnull align 8 dereferenceable(120) %prefixes)
          to label %invoke.cont9 unwind label %lpad5

invoke.cont9:                                     ; preds = %while.body
  invoke void @_ZN6icu_7525ContractionsAndExpansions9setPrefixERKNS_13UnicodeStringE(ptr noundef nonnull align 8 dereferenceable(764) %this1, ptr noundef nonnull align 8 dereferenceable(64) %call10)
          to label %invoke.cont11 unwind label %lpad5

invoke.cont11:                                    ; preds = %invoke.cont9
  %9 = load i32, ptr %start.addr, align 4
  %10 = load i32, ptr %end.addr, align 4
  %contractions = getelementptr inbounds %"class.icu_75::ContractionsAndExpansions", ptr %this1, i32 0, i32 1
  %11 = load ptr, ptr %contractions, align 8
  invoke void @_ZN6icu_7525ContractionsAndExpansions10addStringsEiiPNS_10UnicodeSetE(ptr noundef nonnull align 8 dereferenceable(764) %this1, i32 noundef %9, i32 noundef %10, ptr noundef %11)
          to label %invoke.cont12 unwind label %lpad5

invoke.cont12:                                    ; preds = %invoke.cont11
  %12 = load i32, ptr %start.addr, align 4
  %13 = load i32, ptr %end.addr, align 4
  %expansions = getelementptr inbounds %"class.icu_75::ContractionsAndExpansions", ptr %this1, i32 0, i32 2
  %14 = load ptr, ptr %expansions, align 8
  invoke void @_ZN6icu_7525ContractionsAndExpansions10addStringsEiiPNS_10UnicodeSetE(ptr noundef nonnull align 8 dereferenceable(764) %this1, i32 noundef %12, i32 noundef %13, ptr noundef %14)
          to label %invoke.cont13 unwind label %lpad5

invoke.cont13:                                    ; preds = %invoke.cont12
  %15 = load i32, ptr %start.addr, align 4
  %16 = load i32, ptr %end.addr, align 4
  %call15 = invoke noundef i32 @_ZNK6icu_7510UCharsTrie8Iterator8getValueEv(ptr noundef nonnull align 8 dereferenceable(120) %prefixes)
          to label %invoke.cont14 unwind label %lpad5

invoke.cont14:                                    ; preds = %invoke.cont13
  invoke void @_ZN6icu_7525ContractionsAndExpansions10handleCE32Eiij(ptr noundef nonnull align 8 dereferenceable(764) %this1, i32 noundef %15, i32 noundef %16, i32 noundef %call15)
          to label %invoke.cont16 unwind label %lpad5

invoke.cont16:                                    ; preds = %invoke.cont14
  br label %while.cond, !llvm.loop !17

lpad:                                             ; preds = %if.end
  %17 = landingpad { ptr, i32 }
          cleanup
  %18 = extractvalue { ptr, i32 } %17, 0
  store ptr %18, ptr %exn.slot, align 8
  %19 = extractvalue { ptr, i32 } %17, 1
  store i32 %19, ptr %ehselector.slot, align 4
  call void @_ZN6icu_7514ConstChar16PtrD2Ev(ptr noundef nonnull align 8 dereferenceable(8) %agg.tmp) #6
  br label %eh.resume

lpad5:                                            ; preds = %while.end, %invoke.cont14, %invoke.cont13, %invoke.cont12, %invoke.cont11, %invoke.cont9, %while.body, %while.cond
  %20 = landingpad { ptr, i32 }
          cleanup
  %21 = extractvalue { ptr, i32 } %20, 0
  store ptr %21, ptr %exn.slot, align 8
  %22 = extractvalue { ptr, i32 } %20, 1
  store i32 %22, ptr %ehselector.slot, align 4
  call void @_ZN6icu_7510UCharsTrie8IteratorD1Ev(ptr noundef nonnull align 8 dereferenceable(120) %prefixes) #6
  br label %eh.resume

while.end:                                        ; preds = %invoke.cont6
  invoke void @_ZN6icu_7525ContractionsAndExpansions11resetPrefixEv(ptr noundef nonnull align 8 dereferenceable(764) %this1)
          to label %invoke.cont17 unwind label %lpad5

invoke.cont17:                                    ; preds = %while.end
  call void @_ZN6icu_7510UCharsTrie8IteratorD1Ev(ptr noundef nonnull align 8 dereferenceable(120) %prefixes) #6
  br label %return

return:                                           ; preds = %invoke.cont17, %if.then
  ret void

eh.resume:                                        ; preds = %lpad5, %lpad
  %exn = load ptr, ptr %exn.slot, align 8
  %sel = load i32, ptr %ehselector.slot, align 4
  %lpad.val = insertvalue { ptr, i32 } poison, ptr %exn, 0
  %lpad.val18 = insertvalue { ptr, i32 } %lpad.val, i32 %sel, 1
  resume { ptr, i32 } %lpad.val18
}