; Function Attrs: mustprogress uwtable
define void @_ZN6icu_7525ContractionsAndExpansions14handlePrefixesEiij(ptr noundef nonnull align 8 dereferenceable(764) %this, i32 noundef %start, i32 noundef %end, i32 noundef %ce32) local_unnamed_addr #0 align 2 personality ptr @__gxx_personality_v0 {
entry:
  %prefixes = alloca %"class.icu_75::UCharsTrie::Iterator", align 8
  %agg.tmp = alloca %"class.icu_75::ConstChar16Ptr", align 8
  %0 = load ptr, ptr %this, align 8
  %contexts = getelementptr inbounds i8, ptr %0, i64 24
  %1 = load ptr, ptr %contexts, align 8
  %shr.i = lshr i32 %ce32, 13
  %idx.ext = zext nneg i32 %shr.i to i64
  %add.ptr = getelementptr inbounds i16, ptr %1, i64 %idx.ext
  %2 = load i16, ptr %add.ptr, align 2
  %conv.i = zext i16 %2 to i32
  %shl.i = shl nuw i32 %conv.i, 16
  %arrayidx1.i = getelementptr inbounds i8, ptr %add.ptr, i64 2
  %3 = load i16, ptr %arrayidx1.i, align 2
  %conv2.i = zext i16 %3 to i32
  %or.i = or disjoint i32 %shl.i, %conv2.i
  tail call void @_ZN6icu_7525ContractionsAndExpansions10handleCE32Eiij(ptr noundef nonnull align 8 dereferenceable(764) %this, i32 noundef %start, i32 noundef %end, i32 noundef %or.i)
  %addPrefixes = getelementptr inbounds i8, ptr %this, i64 32
  %4 = load i8, ptr %addPrefixes, align 8
  %tobool.not = icmp eq i8 %4, 0
  br i1 %tobool.not, label %return, label %if.end

if.end:                                           ; preds = %entry
  %add.ptr3 = getelementptr inbounds i8, ptr %add.ptr, i64 4
  store ptr %add.ptr3, ptr %agg.tmp, align 8
  %errorCode = getelementptr inbounds i8, ptr %this, i64 760
  invoke void @_ZN6icu_7510UCharsTrie8IteratorC1ENS_14ConstChar16PtrEiR10UErrorCode(ptr noundef nonnull align 8 dereferenceable(120) %prefixes, ptr noundef nonnull %agg.tmp, i32 noundef 0, ptr noundef nonnull align 4 dereferenceable(4) %errorCode)
          to label %invoke.cont unwind label %lpad

invoke.cont:                                      ; preds = %if.end
  %5 = load ptr, ptr %agg.tmp, align 8
  call void asm sideeffect "", "rm,~{memory},~{dirflag},~{fpsr},~{flags}"(ptr %5) #9, !srcloc !7
  %str_.i = getelementptr inbounds i8, ptr %prefixes, i64 40
  %unreversedPrefix.i = getelementptr inbounds i8, ptr %this, i64 440
  %fUnion.i.i.i.i = getelementptr inbounds i8, ptr %this, i64 448
  %fLength.i.i.i = getelementptr inbounds i8, ptr %this, i64 452
  %contractions = getelementptr inbounds i8, ptr %this, i64 8
  %expansions = getelementptr inbounds i8, ptr %this, i64 16
  %value_.i = getelementptr inbounds i8, ptr %prefixes, i64 108
  br label %while.cond

while.cond:                                       ; preds = %invoke.cont13, %invoke.cont
  %call7 = invoke noundef signext i8 @_ZN6icu_7510UCharsTrie8Iterator4nextER10UErrorCode(ptr noundef nonnull align 8 dereferenceable(120) %prefixes, ptr noundef nonnull align 4 dereferenceable(4) %errorCode)
          to label %invoke.cont6 unwind label %lpad5

invoke.cont6:                                     ; preds = %while.cond
  %tobool8.not = icmp eq i8 %call7, 0
  br i1 %tobool8.not, label %invoke.cont17, label %while.body

while.body:                                       ; preds = %invoke.cont6
  %call.i10 = invoke noundef nonnull align 8 dereferenceable(64) ptr @_ZN6icu_7513UnicodeStringaSERKS0_(ptr noundef nonnull align 8 dereferenceable(64) %unreversedPrefix.i, ptr noundef nonnull align 8 dereferenceable(64) %str_.i)
          to label %call.i.noexc unwind label %lpad5

call.i.noexc:                                     ; preds = %while.body
  %6 = load i16, ptr %fUnion.i.i.i.i, align 8
  %cmp.i.i.i.i = icmp slt i16 %6, 0
  %7 = ashr i16 %6, 5
  %shr.i.i.i.i = sext i16 %7 to i32
  %8 = load i32, ptr %fLength.i.i.i, align 4
  %cond.i.i.i = select i1 %cmp.i.i.i.i, i32 %8, i32 %shr.i.i.i.i
  %call2.i.i11 = invoke noundef nonnull align 8 dereferenceable(64) ptr @_ZN6icu_7513UnicodeString9doReverseEii(ptr noundef nonnull align 8 dereferenceable(64) %unreversedPrefix.i, i32 noundef 0, i32 noundef %cond.i.i.i)
          to label %invoke.cont11 unwind label %lpad5

invoke.cont11:                                    ; preds = %call.i.noexc
  %9 = load ptr, ptr %contractions, align 8
  invoke void @_ZN6icu_7525ContractionsAndExpansions10addStringsEiiPNS_10UnicodeSetE(ptr noundef nonnull align 8 dereferenceable(764) %this, i32 noundef %start, i32 noundef %end, ptr noundef %9)
          to label %invoke.cont12 unwind label %lpad5

invoke.cont12:                                    ; preds = %invoke.cont11
  %10 = load ptr, ptr %expansions, align 8
  invoke void @_ZN6icu_7525ContractionsAndExpansions10addStringsEiiPNS_10UnicodeSetE(ptr noundef nonnull align 8 dereferenceable(764) %this, i32 noundef %start, i32 noundef %end, ptr noundef %10)
          to label %invoke.cont13 unwind label %lpad5

invoke.cont13:                                    ; preds = %invoke.cont12
  %11 = load i32, ptr %value_.i, align 4
  invoke void @_ZN6icu_7525ContractionsAndExpansions10handleCE32Eiij(ptr noundef nonnull align 8 dereferenceable(764) %this, i32 noundef %start, i32 noundef %end, i32 noundef %11)
          to label %while.cond unwind label %lpad5, !llvm.loop !17

lpad:                                             ; preds = %if.end
  %12 = landingpad { ptr, i32 }
          cleanup
  %13 = load ptr, ptr %agg.tmp, align 8
  call void asm sideeffect "", "rm,~{memory},~{dirflag},~{fpsr},~{flags}"(ptr %13) #9, !srcloc !7
  br label %eh.resume

lpad5:                                            ; preds = %call.i.noexc, %while.body, %invoke.cont13, %invoke.cont12, %invoke.cont11, %while.cond
  %14 = landingpad { ptr, i32 }
          cleanup
  call void @_ZN6icu_7510UCharsTrie8IteratorD1Ev(ptr noundef nonnull align 8 dereferenceable(120) %prefixes) #9
  br label %eh.resume

invoke.cont17:                                    ; preds = %invoke.cont6
  %15 = load i16, ptr %fUnion.i.i.i.i, align 8
  %conv2.i3.i.i = and i16 %15, 1
  %tobool.not.i.i = icmp eq i16 %conv2.i3.i.i, 0
  %16 = and i16 %15, 30
  %storemerge.i.i = select i1 %tobool.not.i.i, i16 %16, i16 2
  store i16 %storemerge.i.i, ptr %fUnion.i.i.i.i, align 8
  call void @_ZN6icu_7510UCharsTrie8IteratorD1Ev(ptr noundef nonnull align 8 dereferenceable(120) %prefixes) #9
  br label %return

return:                                           ; preds = %entry, %invoke.cont17
  ret void

eh.resume:                                        ; preds = %lpad5, %lpad
  %.pn = phi { ptr, i32 } [ %14, %lpad5 ], [ %12, %lpad ]
  resume { ptr, i32 } %.pn
}